target datalayout = "e-m:e-p270:32:32-p271:32:32-p272:64:64-i64:64-i128:128-f80:128-n8:16:32:64-S128"
target triple = "x86_64-pc-linux-gnu"

%"class.std::__shared_count" = type { ptr }
%"class.std::shared_ptr.31" = type { %"class.std::__shared_ptr.32" }
%"class.std::__shared_ptr.32" = type { ptr, %"class.std::__shared_count" }
%"struct.Luau::Location" = type { %"struct.Luau::Position", %"struct.Luau::Position" }
%"struct.Luau::Position" = type { i32, i32 }
%"class.Luau::AstNode" = type <{ ptr, i32, %"struct.Luau::Location", [4 x i8] }>
%"class.Luau::AstStat.base" = type { %"class.Luau::AstNode.base", i8 }
%"class.Luau::AstNode.base" = type <{ ptr, i32, %"struct.Luau::Location" }>
%"class.std::optional.479" = type { %"struct.std::_Optional_base.480" }
%"struct.std::_Optional_base.480" = type { %"struct.std::_Optional_payload.482" }
%"struct.std::_Optional_payload.482" = type { %"struct.std::_Optional_payload_base.base.484", [7 x i8] }
%"struct.std::_Optional_payload_base.base.484" = type <{ %"union.std::_Optional_payload_base<const Luau::Type *>::_Storage", i8 }>
%"union.std::_Optional_payload_base<const Luau::Type *>::_Storage" = type { ptr }
%"struct.Luau::Inference" = type { ptr, ptr }
%"class.Luau::AstStatWhile" = type <{ %"class.Luau::AstStat.base", [3 x i8], ptr, ptr, i8, [3 x i8], %"struct.Luau::Location", [4 x i8] }>
%"struct.std::_Optional_payload_base.483" = type <{ %"union.std::_Optional_payload_base<const Luau::Type *>::_Storage", i8, [7 x i8] }>

; Function Attrs: mustprogress nounwind uwtable
define linkonce_odr dso_local void @_ZNSt22_Optional_payload_baseIPKN4Luau4TypeEE8_StorageIS3_Lb1EEC2Ev(ptr noundef nonnull align 8 dereferenceable(8) %0) unnamed_addr #2 comdat align 2 {
  %2 = alloca ptr, align 8
  store ptr %0, ptr %2, align 8, !tbaa !1705
  ret void
}

; Function Attrs: mustprogress nounwind uwtable
define linkonce_odr dso_local void @_ZNSt22_Optional_payload_baseIPKN4Luau4TypeEEC2Ev(ptr noundef nonnull align 8 dereferenceable(9) %0) unnamed_addr #2 comdat align 2 {
  %2 = alloca ptr, align 8
  store ptr %0, ptr %2, align 8, !tbaa !1699
  %3 = load ptr, ptr %2, align 8
  %4 = getelementptr inbounds nuw %"struct.std::_Optional_payload_base.483", ptr %3, i32 0, i32 0
  call void @_ZNSt22_Optional_payload_baseIPKN4Luau4TypeEE8_StorageIS3_Lb1EEC2Ev(ptr noundef nonnull align 8 dereferenceable(8) %4) #22
  %5 = getelementptr inbounds nuw %"struct.std::_Optional_payload_base.483", ptr %3, i32 0, i32 1
  store i8 0, ptr %5, align 8, !tbaa !1698
  ret void
}

; Function Attrs: mustprogress nounwind uwtable
define linkonce_odr dso_local void @_ZNSt17_Optional_payloadIPKN4Luau4TypeELb1ELb1ELb1EEC2Ev(ptr noundef nonnull align 8 dereferenceable(9) %0) unnamed_addr #2 comdat align 2 {
  %2 = alloca ptr, align 8
  store ptr %0, ptr %2, align 8, !tbaa !1703
  %3 = load ptr, ptr %2, align 8
  call void @_ZNSt22_Optional_payload_baseIPKN4Luau4TypeEEC2Ev(ptr noundef nonnull align 8 dereferenceable(9) %3) #22
  ret void
}

; Function Attrs: mustprogress nounwind uwtable
define linkonce_odr dso_local void @_ZNSt14_Optional_baseIPKN4Luau4TypeELb1ELb1EEC2Ev(ptr noundef nonnull align 8 dereferenceable(16) %0) unnamed_addr #2 comdat align 2 {
  %2 = alloca ptr, align 8
  store ptr %0, ptr %2, align 8, !tbaa !1701
  %3 = load ptr, ptr %2, align 8
  %4 = getelementptr inbounds nuw %"struct.std::_Optional_base.480", ptr %3, i32 0, i32 0
  call void @_ZNSt17_Optional_payloadIPKN4Luau4TypeELb1ELb1ELb1EEC2Ev(ptr noundef nonnull align 8 dereferenceable(9) %4) #22
  ret void
}

; Function Attrs: mustprogress nounwind uwtable
define linkonce_odr dso_local void @_ZNSt8optionalIPKN4Luau4TypeEEC2Ev(ptr noundef nonnull align 8 dereferenceable(16) %0) unnamed_addr #2 comdat align 2 {
  %2 = alloca ptr, align 8
  store ptr %0, ptr %2, align 8, !tbaa !413
  %3 = load ptr, ptr %2, align 8
  call void @_ZNSt14_Optional_baseIPKN4Luau4TypeELb1ELb1EEC2Ev(ptr noundef nonnull align 8 dereferenceable(16) %3) #22
  ret void
}

; Function Attrs: mustprogress uwtable
define dso_local noundef i32 @_ZN4Luau19ConstraintGenerator5visitERKSt10shared_ptrINS_5ScopeEEPNS_12AstStatWhileE(ptr noundef nonnull align 8 dereferenceable(472) %0, ptr noundef nonnull align 8 dereferenceable(16) %1, ptr noundef %2) #3 align 2 personality ptr @__gxx_personality_v0 {
  %4 = alloca ptr, align 8
  %5 = alloca ptr, align 8
  %6 = alloca ptr, align 8
  %7 = alloca ptr, align 8
  %8 = alloca %"struct.Luau::Inference", align 8
  %9 = alloca %"class.std::optional.479", align 8
  %10 = alloca %"class.std::shared_ptr.31", align 8
  %11 = alloca %"struct.Luau::Location", align 4
  %12 = alloca ptr, align 8
  %13 = alloca i32, align 4
  store ptr %0, ptr %4, align 8, !tbaa !22
  store ptr %1, ptr %5, align 8, !tbaa !26
  store ptr %2, ptr %6, align 8, !tbaa !829
  %14 = load ptr, ptr %4, align 8
  call void @llvm.lifetime.start.p0(i64 8, ptr %7) #22
  call void @llvm.lifetime.start.p0(i64 16, ptr %8) #22
  %15 = load ptr, ptr %5, align 8, !tbaa !26
  %16 = load ptr, ptr %6, align 8, !tbaa !829
  %17 = getelementptr inbounds nuw %"class.Luau::AstStatWhile", ptr %16, i32 0, i32 2
  %18 = load ptr, ptr %17, align 8, !tbaa !872
  call void @_ZNSt8optionalIPKN4Luau4TypeEEC2Ev(ptr noundef nonnull align 8 dereferenceable(16) %9) #22
  %19 = getelementptr inbounds nuw { ptr, i8 }, ptr %9, i32 0, i32 0
  %20 = load ptr, ptr %19, align 8
  %21 = getelementptr inbounds nuw { ptr, i8 }, ptr %9, i32 0, i32 1
  %22 = load i8, ptr %21, align 8
  %23 = call { ptr, ptr } @_ZN4Luau19ConstraintGenerator5checkERKSt10shared_ptrINS_5ScopeEEPNS_7AstExprESt8optionalIPKNS_4TypeEEbb(ptr noundef nonnull align 8 dereferenceable(472) %14, ptr noundef nonnull align 8 dereferenceable(16) %15, ptr noundef %18, ptr %20, i8 %22, i1 noundef zeroext false, i1 noundef zeroext true)
  %24 = getelementptr inbounds nuw { ptr, ptr }, ptr %8, i32 0, i32 0
  %25 = extractvalue { ptr, ptr } %23, 0
  store ptr %25, ptr %24, align 8
  %26 = getelementptr inbounds nuw { ptr, ptr }, ptr %8, i32 0, i32 1
  %27 = extractvalue { ptr, ptr } %23, 1
  store ptr %27, ptr %26, align 8
  %28 = getelementptr inbounds nuw %"struct.Luau::Inference", ptr %8, i32 0, i32 1
  %29 = load ptr, ptr %28, align 8, !tbaa !874
  call void @llvm.lifetime.end.p0(i64 16, ptr %8) #22
  store ptr %29, ptr %7, align 8, !tbaa !470
  call void @llvm.lifetime.start.p0(i64 16, ptr %10) #22
  %30 = load ptr, ptr %6, align 8, !tbaa !829
  %31 = load ptr, ptr %5, align 8, !tbaa !26
  call void @_ZN4Luau19ConstraintGenerator10childScopeEPNS_7AstNodeERKSt10shared_ptrINS_5ScopeEE(ptr dead_on_unwind writable sret(%"class.std::shared_ptr.31") align 8 %10, ptr noundef nonnull align 8 dereferenceable(472) %14, ptr noundef %30, ptr noundef nonnull align 8 dereferenceable(16) %31)
  %32 = load ptr, ptr %6, align 8, !tbaa !829
  %33 = getelementptr inbounds nuw %"class.Luau::AstStatWhile", ptr %32, i32 0, i32 2
  %34 = load ptr, ptr %33, align 8, !tbaa !872
  %35 = getelementptr inbounds nuw %"class.Luau::AstNode", ptr %34, i32 0, i32 2
  call void @llvm.memcpy.p0.p0.i64(ptr align 4 %11, ptr align 4 %35, i64 16, i1 false), !tbaa.struct !209
  %36 = load ptr, ptr %7, align 8, !tbaa !470
  %37 = getelementptr inbounds nuw { i64, i64 }, ptr %11, i32 0, i32 0
  %38 = load i64, ptr %37, align 4
  %39 = getelementptr inbounds nuw { i64, i64 }, ptr %11, i32 0, i32 1
  %40 = load i64, ptr %39, align 4
  invoke void @_ZN4Luau19ConstraintGenerator16applyRefinementsERKSt10shared_ptrINS_5ScopeEENS_8LocationEPNS_7VariantIJNS_8VariadicENS_8NegationENS_11ConjunctionENS_11DisjunctionENS_11EquivalenceENS_11PropositionEEEE(ptr noundef nonnull align 8 dereferenceable(472) %14, ptr noundef nonnull align 8 dereferenceable(16) %10, i64 %38, i64 %40, ptr noundef %36)
          to label %41 unwind label %47

41:                                               ; preds = %3
  %42 = load ptr, ptr %6, align 8, !tbaa !829
  %43 = getelementptr inbounds nuw %"class.Luau::AstStatWhile", ptr %42, i32 0, i32 3
  %44 = load ptr, ptr %43, align 8, !tbaa !876
  %45 = invoke noundef i32 @_ZN4Luau19ConstraintGenerator5visitERKSt10shared_ptrINS_5ScopeEEPNS_12AstStatBlockE(ptr noundef nonnull align 8 dereferenceable(472) %14, ptr noundef nonnull align 8 dereferenceable(16) %10, ptr noundef %44)
          to label %46 unwind label %47

46:                                               ; preds = %41
  call void @_ZNSt12__shared_ptrIN4Luau5ScopeELN9__gnu_cxx12_Lock_policyE2EED2Ev(ptr noundef nonnull align 8 dereferenceable(16) %10) #22
  call void @llvm.lifetime.end.p0(i64 16, ptr %10) #22
  call void @llvm.lifetime.end.p0(i64 8, ptr %7) #22
  ret i32 1

47:                                               ; preds = %41, %3
  %48 = landingpad { ptr, i32 }
          cleanup
  %49 = extractvalue { ptr, i32 } %48, 0
  store ptr %49, ptr %12, align 8
  %50 = extractvalue { ptr, i32 } %48, 1
  store i32 %50, ptr %13, align 4
  call void @_ZNSt12__shared_ptrIN4Luau5ScopeELN9__gnu_cxx12_Lock_policyE2EED2Ev(ptr noundef nonnull align 8 dereferenceable(16) %10) #22
  call void @llvm.lifetime.end.p0(i64 16, ptr %10) #22
  call void @llvm.lifetime.end.p0(i64 8, ptr %7) #22
  br label %51

51:                                               ; preds = %47
  %52 = load ptr, ptr %12, align 8
  %53 = load i32, ptr %13, align 4
  %54 = insertvalue { ptr, i32 } poison, ptr %52, 0
  %55 = insertvalue { ptr, i32 } %54, i32 %53, 1
  resume { ptr, i32 } %55
}