; Function Attrs: mustprogress uwtable
define dso_local noundef i32 @_ZN4Luau19ConstraintGenerator5visitERKSt10shared_ptrINS_5ScopeEEPNS_12AstStatWhileE(ptr noundef nonnull align 8 dereferenceable(472) %0, ptr noundef nonnull align 8 dereferenceable(16) %1, ptr noundef %2) local_unnamed_addr #5 align 2 personality ptr @__gxx_personality_v0 {
  %4 = alloca %"class.std::shared_ptr.31", align 8
  %5 = getelementptr inbounds nuw i8, ptr %2, i64 32
  %6 = load ptr, ptr %5, align 8, !tbaa !690
  %7 = tail call { ptr, ptr } @_ZN4Luau19ConstraintGenerator5checkERKSt10shared_ptrINS_5ScopeEEPNS_7AstExprESt8optionalIPKNS_4TypeEEbb(ptr noundef nonnull align 8 dereferenceable(472) %0, ptr noundef nonnull align 8 dereferenceable(16) %1, ptr noundef %6, ptr undef, i8 0, i1 noundef zeroext false, i1 noundef zeroext true)
  %8 = extractvalue { ptr, ptr } %7, 1
  call void @llvm.lifetime.start.p0(i64 16, ptr nonnull %4) #28
  call void @_ZN4Luau19ConstraintGenerator10childScopeEPNS_7AstNodeERKSt10shared_ptrINS_5ScopeEE(ptr dead_on_unwind nonnull writable sret(%"class.std::shared_ptr.31") align 8 %4, ptr noundef nonnull align 8 dereferenceable(472) %0, ptr noundef %2, ptr noundef nonnull align 8 dereferenceable(16) %1)
  %9 = load ptr, ptr %5, align 8, !tbaa !690
  %10 = getelementptr inbounds nuw i8, ptr %9, i64 12
  %.sroa.0.0.copyload = load i64, ptr %10, align 4
  %.sroa.2.0..sroa_idx = getelementptr inbounds nuw i8, ptr %9, i64 20
  %.sroa.2.0.copyload = load i64, ptr %.sroa.2.0..sroa_idx, align 4
  invoke void @_ZN4Luau19ConstraintGenerator16applyRefinementsERKSt10shared_ptrINS_5ScopeEENS_8LocationEPNS_7VariantIJNS_8VariadicENS_8NegationENS_11ConjunctionENS_11DisjunctionENS_11EquivalenceENS_11PropositionEEEE(ptr noundef nonnull align 8 dereferenceable(472) %0, ptr noundef nonnull align 8 dereferenceable(16) %4, i64 %.sroa.0.0.copyload, i64 %.sroa.2.0.copyload, ptr noundef %8)
          to label %11 unwind label %39

11:                                               ; preds = %3
  %12 = getelementptr inbounds nuw i8, ptr %2, i64 40
  %13 = load ptr, ptr %12, align 8, !tbaa !692
  %14 = invoke noundef i32 @_ZN4Luau19ConstraintGenerator5visitERKSt10shared_ptrINS_5ScopeEEPNS_12AstStatBlockE(ptr noundef nonnull align 8 dereferenceable(472) %0, ptr noundef nonnull align 8 dereferenceable(16) %4, ptr noundef %13)
          to label %15 unwind label %39

15:                                               ; preds = %11
  %16 = getelementptr inbounds nuw i8, ptr %4, i64 8
  %17 = load ptr, ptr %16, align 8, !tbaa !14
  %.not.i.i = icmp eq ptr %17, null
  br i1 %.not.i.i, label %_ZNSt12__shared_ptrIN4Luau5ScopeELN9__gnu_cxx12_Lock_policyE2EED2Ev.exit, label %18

18:                                               ; preds = %15
  %19 = getelementptr inbounds nuw i8, ptr %17, i64 8
  %20 = load atomic i64, ptr %19 acquire, align 8
  %21 = icmp eq i64 %20, 4294967297
  %22 = trunc i64 %20 to i32
  br i1 %21, label %23, label %31

23:                                               ; preds = %18
  store i32 0, ptr %19, align 8, !tbaa !141
  %24 = getelementptr inbounds nuw i8, ptr %17, i64 12
  store i32 0, ptr %24, align 4, !tbaa !143
  %25 = load ptr, ptr %17, align 8, !tbaa !144
  %26 = getelementptr inbounds nuw i8, ptr %25, i64 16
  %27 = load ptr, ptr %26, align 8
  call void %27(ptr noundef nonnull align 8 dereferenceable(16) %17) #28
  %28 = load ptr, ptr %17, align 8, !tbaa !144
  %29 = getelementptr inbounds nuw i8, ptr %28, i64 24
  %30 = load ptr, ptr %29, align 8
  call void %30(ptr noundef nonnull align 8 dereferenceable(16) %17) #28
  br label %_ZNSt12__shared_ptrIN4Luau5ScopeELN9__gnu_cxx12_Lock_policyE2EED2Ev.exit

31:                                               ; preds = %18
  %32 = load i8, ptr @__libc_single_threaded, align 1, !tbaa !15
  %.not.i.i.i = icmp eq i8 %32, 0
  br i1 %.not.i.i.i, label %35, label %33

33:                                               ; preds = %31
  %34 = add nsw i32 %22, -1
  store i32 %34, ptr %19, align 4, !tbaa !4
  br label %_ZN9__gnu_cxx27__exchange_and_add_dispatchEPii.exit.i.i.i

35:                                               ; preds = %31
  %36 = atomicrmw volatile add ptr %19, i32 -1 acq_rel, align 4
  br label %_ZN9__gnu_cxx27__exchange_and_add_dispatchEPii.exit.i.i.i

_ZN9__gnu_cxx27__exchange_and_add_dispatchEPii.exit.i.i.i: ; preds = %35, %33
  %.0.i.i.i.i = phi i32 [ %22, %33 ], [ %36, %35 ]
  %37 = icmp eq i32 %.0.i.i.i.i, 1
  br i1 %37, label %38, label %_ZNSt12__shared_ptrIN4Luau5ScopeELN9__gnu_cxx12_Lock_policyE2EED2Ev.exit, !prof !146

38:                                               ; preds = %_ZN9__gnu_cxx27__exchange_and_add_dispatchEPii.exit.i.i.i
  call void @_ZNSt16_Sp_counted_baseILN9__gnu_cxx12_Lock_policyE2EE24_M_release_last_use_coldEv(ptr noundef nonnull align 8 dereferenceable(16) %17) #28
  br label %_ZNSt12__shared_ptrIN4Luau5ScopeELN9__gnu_cxx12_Lock_policyE2EED2Ev.exit

_ZNSt12__shared_ptrIN4Luau5ScopeELN9__gnu_cxx12_Lock_policyE2EED2Ev.exit: ; preds = %15, %23, %_ZN9__gnu_cxx27__exchange_and_add_dispatchEPii.exit.i.i.i, %38
  call void @llvm.lifetime.end.p0(i64 16, ptr nonnull %4) #28
  ret i32 1

39:                                               ; preds = %11, %3
  %40 = landingpad { ptr, i32 }
          cleanup
  call void @_ZNSt12__shared_ptrIN4Luau5ScopeELN9__gnu_cxx12_Lock_policyE2EED2Ev(ptr noundef nonnull align 8 dereferenceable(16) %4) #28
  call void @llvm.lifetime.end.p0(i64 16, ptr nonnull %4) #28
  resume { ptr, i32 } %40
}